; Function Attrs: mustprogress nounwind uwtable
define hidden void @_ZN16JvmtiAgentThreadC2EP8JvmtiEnvPFvP9_jvmtiEnvP7JNIEnv_PvEPKv(ptr noundef nonnull align 8 dereferenceable(1824) %0, ptr noundef %1, ptr noundef %2, ptr noundef %3) unnamed_addr #0 align 2 {
  tail call void @_ZN10JavaThreadC2EPFvPS_S0_Em8MEMFLAGS(ptr noundef nonnull align 8 dereferenceable(1800) %0, ptr noundef nonnull @_ZN16JvmtiAgentThread22start_function_wrapperEP10JavaThreadS1_, i64 noundef 0, i8 noundef zeroext 2) #17
  store ptr getelementptr inbounds inrange(-16, 224) (i8, ptr @_ZTV16JvmtiAgentThread, i64 16), ptr %0, align 8
  %5 = getelementptr inbounds i8, ptr %0, i64 1808
  store ptr %1, ptr %5, align 8
  %6 = getelementptr inbounds i8, ptr %0, i64 1800
  store ptr %2, ptr %6, align 8
  %7 = getelementptr inbounds i8, ptr %0, i64 1816
  store ptr %3, ptr %7, align 8
  ret void
}